target datalayout = "e-m:e-p270:32:32-p271:32:32-p272:64:64-i64:64-i128:128-f80:128-n8:16:32:64-S128"
target triple = "x86_64-pc-linux-gnu"

%struct.textfont_t = type { ptr, ptr, ptr, double, i32 }

; Function Attrs: nounwind uwtable
define internal i32 @textfont_comparf(ptr noundef %0, ptr noundef %1) #0 {
  %3 = alloca i32, align 4
  %4 = alloca ptr, align 8
  %5 = alloca ptr, align 8
  %6 = alloca i32, align 4
  %7 = alloca ptr, align 8
  %8 = alloca ptr, align 8
  %9 = alloca i32, align 4
  store ptr %0, ptr %4, align 8, !tbaa !8
  store ptr %1, ptr %5, align 8, !tbaa !8
  call void @llvm.lifetime.start.p0(i64 4, ptr %6) #10
  call void @llvm.lifetime.start.p0(i64 8, ptr %7) #10
  %10 = load ptr, ptr %4, align 8, !tbaa !8
  store ptr %10, ptr %7, align 8, !tbaa !8
  call void @llvm.lifetime.start.p0(i64 8, ptr %8) #10
  %11 = load ptr, ptr %5, align 8, !tbaa !8
  store ptr %11, ptr %8, align 8, !tbaa !8
  %12 = load ptr, ptr %7, align 8, !tbaa !8
  %13 = getelementptr inbounds nuw %struct.textfont_t, ptr %12, i32 0, i32 0
  %14 = load ptr, ptr %13, align 8, !tbaa !21
  %15 = icmp ne ptr %14, null
  br i1 %15, label %21, label %16

16:                                               ; preds = %2
  %17 = load ptr, ptr %8, align 8, !tbaa !8
  %18 = getelementptr inbounds nuw %struct.textfont_t, ptr %17, i32 0, i32 0
  %19 = load ptr, ptr %18, align 8, !tbaa !21
  %20 = icmp ne ptr %19, null
  br i1 %20, label %21, label %46

21:                                               ; preds = %16, %2
  %22 = load ptr, ptr %7, align 8, !tbaa !8
  %23 = getelementptr inbounds nuw %struct.textfont_t, ptr %22, i32 0, i32 0
  %24 = load ptr, ptr %23, align 8, !tbaa !21
  %25 = icmp ne ptr %24, null
  br i1 %25, label %27, label %26

26:                                               ; preds = %21
  store i32 -1, ptr %3, align 4
  store i32 1, ptr %9, align 4
  br label %122

27:                                               ; preds = %21
  %28 = load ptr, ptr %8, align 8, !tbaa !8
  %29 = getelementptr inbounds nuw %struct.textfont_t, ptr %28, i32 0, i32 0
  %30 = load ptr, ptr %29, align 8, !tbaa !21
  %31 = icmp ne ptr %30, null
  br i1 %31, label %33, label %32

32:                                               ; preds = %27
  store i32 1, ptr %3, align 4
  store i32 1, ptr %9, align 4
  br label %122

33:                                               ; preds = %27
  %34 = load ptr, ptr %7, align 8, !tbaa !8
  %35 = getelementptr inbounds nuw %struct.textfont_t, ptr %34, i32 0, i32 0
  %36 = load ptr, ptr %35, align 8, !tbaa !21
  %37 = load ptr, ptr %8, align 8, !tbaa !8
  %38 = getelementptr inbounds nuw %struct.textfont_t, ptr %37, i32 0, i32 0
  %39 = load ptr, ptr %38, align 8, !tbaa !21
  %40 = call i32 @strcmp(ptr noundef %36, ptr noundef %39) #11
  store i32 %40, ptr %6, align 4, !tbaa !28
  %41 = load i32, ptr %6, align 4, !tbaa !28
  %42 = icmp ne i32 %41, 0
  br i1 %42, label %43, label %45

43:                                               ; preds = %33
  %44 = load i32, ptr %6, align 4, !tbaa !28
  store i32 %44, ptr %3, align 4
  store i32 1, ptr %9, align 4
  br label %122

45:                                               ; preds = %33
  br label %46

46:                                               ; preds = %45, %16
  %47 = load ptr, ptr %7, align 8, !tbaa !8
  %48 = getelementptr inbounds nuw %struct.textfont_t, ptr %47, i32 0, i32 1
  %49 = load ptr, ptr %48, align 8, !tbaa !66
  %50 = icmp ne ptr %49, null
  br i1 %50, label %56, label %51

51:                                               ; preds = %46
  %52 = load ptr, ptr %8, align 8, !tbaa !8
  %53 = getelementptr inbounds nuw %struct.textfont_t, ptr %52, i32 0, i32 1
  %54 = load ptr, ptr %53, align 8, !tbaa !66
  %55 = icmp ne ptr %54, null
  br i1 %55, label %56, label %81

56:                                               ; preds = %51, %46
  %57 = load ptr, ptr %7, align 8, !tbaa !8
  %58 = getelementptr inbounds nuw %struct.textfont_t, ptr %57, i32 0, i32 1
  %59 = load ptr, ptr %58, align 8, !tbaa !66
  %60 = icmp ne ptr %59, null
  br i1 %60, label %62, label %61

61:                                               ; preds = %56
  store i32 -1, ptr %3, align 4
  store i32 1, ptr %9, align 4
  br label %122

62:                                               ; preds = %56
  %63 = load ptr, ptr %8, align 8, !tbaa !8
  %64 = getelementptr inbounds nuw %struct.textfont_t, ptr %63, i32 0, i32 1
  %65 = load ptr, ptr %64, align 8, !tbaa !66
  %66 = icmp ne ptr %65, null
  br i1 %66, label %68, label %67

67:                                               ; preds = %62
  store i32 1, ptr %3, align 4
  store i32 1, ptr %9, align 4
  br label %122

68:                                               ; preds = %62
  %69 = load ptr, ptr %7, align 8, !tbaa !8
  %70 = getelementptr inbounds nuw %struct.textfont_t, ptr %69, i32 0, i32 1
  %71 = load ptr, ptr %70, align 8, !tbaa !66
  %72 = load ptr, ptr %8, align 8, !tbaa !8
  %73 = getelementptr inbounds nuw %struct.textfont_t, ptr %72, i32 0, i32 1
  %74 = load ptr, ptr %73, align 8, !tbaa !66
  %75 = call i32 @strcmp(ptr noundef %71, ptr noundef %74) #11
  store i32 %75, ptr %6, align 4, !tbaa !28
  %76 = load i32, ptr %6, align 4, !tbaa !28
  %77 = icmp ne i32 %76, 0
  br i1 %77, label %78, label %80

78:                                               ; preds = %68
  %79 = load i32, ptr %6, align 4, !tbaa !28
  store i32 %79, ptr %3, align 4
  store i32 1, ptr %9, align 4
  br label %122

80:                                               ; preds = %68
  br label %81

81:                                               ; preds = %80, %51
  %82 = load ptr, ptr %7, align 8, !tbaa !8
  %83 = getelementptr inbounds nuw %struct.textfont_t, ptr %82, i32 0, i32 4
  %84 = load i32, ptr %83, align 8
  %85 = and i32 %84, 127
  %86 = load ptr, ptr %8, align 8, !tbaa !8
  %87 = getelementptr inbounds nuw %struct.textfont_t, ptr %86, i32 0, i32 4
  %88 = load i32, ptr %87, align 8
  %89 = and i32 %88, 127
  %90 = icmp slt i32 %85, %89
  br i1 %90, label %91, label %92

91:                                               ; preds = %81
  store i32 -1, ptr %3, align 4
  store i32 1, ptr %9, align 4
  br label %122

92:                                               ; preds = %81
  %93 = load ptr, ptr %7, align 8, !tbaa !8
  %94 = getelementptr inbounds nuw %struct.textfont_t, ptr %93, i32 0, i32 4
  %95 = load i32, ptr %94, align 8
  %96 = and i32 %95, 127
  %97 = load ptr, ptr %8, align 8, !tbaa !8
  %98 = getelementptr inbounds nuw %struct.textfont_t, ptr %97, i32 0, i32 4
  %99 = load i32, ptr %98, align 8
  %100 = and i32 %99, 127
  %101 = icmp sgt i32 %96, %100
  br i1 %101, label %102, label %103

102:                                              ; preds = %92
  store i32 1, ptr %3, align 4
  store i32 1, ptr %9, align 4
  br label %122

103:                                              ; preds = %92
  %104 = load ptr, ptr %7, align 8, !tbaa !8
  %105 = getelementptr inbounds nuw %struct.textfont_t, ptr %104, i32 0, i32 3
  %106 = load double, ptr %105, align 8, !tbaa !31
  %107 = load ptr, ptr %8, align 8, !tbaa !8
  %108 = getelementptr inbounds nuw %struct.textfont_t, ptr %107, i32 0, i32 3
  %109 = load double, ptr %108, align 8, !tbaa !31
  %110 = fcmp olt double %106, %109
  br i1 %110, label %111, label %112

111:                                              ; preds = %103
  store i32 -1, ptr %3, align 4
  store i32 1, ptr %9, align 4
  br label %122

112:                                              ; preds = %103
  %113 = load ptr, ptr %7, align 8, !tbaa !8
  %114 = getelementptr inbounds nuw %struct.textfont_t, ptr %113, i32 0, i32 3
  %115 = load double, ptr %114, align 8, !tbaa !31
  %116 = load ptr, ptr %8, align 8, !tbaa !8
  %117 = getelementptr inbounds nuw %struct.textfont_t, ptr %116, i32 0, i32 3
  %118 = load double, ptr %117, align 8, !tbaa !31
  %119 = fcmp ogt double %115, %118
  br i1 %119, label %120, label %121

120:                                              ; preds = %112
  store i32 1, ptr %3, align 4
  store i32 1, ptr %9, align 4
  br label %122

121:                                              ; preds = %112
  store i32 0, ptr %3, align 4
  store i32 1, ptr %9, align 4
  br label %122

122:                                              ; preds = %121, %120, %111, %102, %91, %78, %67, %61, %43, %32, %26
  call void @llvm.lifetime.end.p0(i64 8, ptr %8) #10
  call void @llvm.lifetime.end.p0(i64 8, ptr %7) #10
  call void @llvm.lifetime.end.p0(i64 4, ptr %6) #10
  %123 = load i32, ptr %3, align 4
  ret i32 %123
}