; Function Attrs: mustprogress nofree nounwind willreturn memory(read, inaccessiblemem: none) uwtable
define internal i32 @textfont_comparf(ptr noundef readonly captures(none) %0, ptr noundef readonly captures(none) %1) #6 {
  %3 = load ptr, ptr %0, align 8, !tbaa !16
  %.not = icmp eq ptr %3, null
  %4 = load ptr, ptr %1, align 8, !tbaa !16
  %.not36 = icmp eq ptr %4, null
  br i1 %.not, label %5, label %6

5:                                                ; preds = %2
  br i1 %.not36, label %9, label %.thread

6:                                                ; preds = %2
  br i1 %.not36, label %.thread, label %7

7:                                                ; preds = %6
  %8 = tail call i32 @strcmp(ptr noundef nonnull dereferenceable(1) %3, ptr noundef nonnull dereferenceable(1) %4) #16
  %.not39 = icmp eq i32 %8, 0
  br i1 %.not39, label %9, label %.thread

9:                                                ; preds = %7, %5
  %10 = getelementptr inbounds nuw i8, ptr %0, i64 8
  %11 = load ptr, ptr %10, align 8, !tbaa !58
  %.not40 = icmp eq ptr %11, null
  %12 = getelementptr inbounds nuw i8, ptr %1, i64 8
  %13 = load ptr, ptr %12, align 8, !tbaa !58
  %.not41 = icmp eq ptr %13, null
  br i1 %.not40, label %14, label %15

14:                                               ; preds = %9
  br i1 %.not41, label %18, label %.thread

15:                                               ; preds = %9
  br i1 %.not41, label %.thread, label %16

16:                                               ; preds = %15
  %17 = tail call i32 @strcmp(ptr noundef nonnull dereferenceable(1) %11, ptr noundef nonnull dereferenceable(1) %13) #16
  %.not44 = icmp eq i32 %17, 0
  br i1 %.not44, label %18, label %.thread

18:                                               ; preds = %16, %14
  %19 = getelementptr inbounds nuw i8, ptr %0, i64 32
  %20 = load i32, ptr %19, align 8
  %21 = and i32 %20, 127
  %22 = getelementptr inbounds nuw i8, ptr %1, i64 32
  %23 = load i32, ptr %22, align 8
  %24 = and i32 %23, 127
  %25 = icmp samesign ult i32 %21, %24
  br i1 %25, label %.thread, label %26

26:                                               ; preds = %18
  %27 = icmp samesign ugt i32 %21, %24
  br i1 %27, label %.thread, label %28

28:                                               ; preds = %26
  %29 = getelementptr inbounds nuw i8, ptr %0, i64 24
  %30 = load double, ptr %29, align 8, !tbaa !25
  %31 = getelementptr inbounds nuw i8, ptr %1, i64 24
  %32 = load double, ptr %31, align 8, !tbaa !25
  %33 = fcmp olt double %30, %32
  br i1 %33, label %.thread, label %34

34:                                               ; preds = %28
  %35 = fcmp ogt double %30, %32
  %. = zext i1 %35 to i32
  br label %.thread

.thread:                                          ; preds = %14, %5, %34, %28, %26, %18, %16, %15, %7, %6
  %.0 = phi i32 [ 1, %6 ], [ %8, %7 ], [ 1, %15 ], [ %17, %16 ], [ -1, %18 ], [ 1, %26 ], [ -1, %28 ], [ %., %34 ], [ -1, %5 ], [ -1, %14 ]
  ret i32 %.0
}